; Function Attrs: nounwind uwtable
define internal fastcc void @PrintSensOutput(ptr noundef readonly captures(none) %0) unnamed_addr #0 {
  %2 = load ptr, ptr %0, align 8, !tbaa !26
  %3 = tail call ptr @N_VGetArrayPointer(ptr noundef %2) #15
  %4 = tail call i32 (ptr, ...) @printf(ptr noundef nonnull dereferenceable(1) @.str.59)
  %5 = load double, ptr %3, align 8, !tbaa !11
  %6 = getelementptr inbounds nuw i8, ptr %3, i64 8
  %7 = load double, ptr %6, align 8, !tbaa !11
  %8 = getelementptr inbounds nuw i8, ptr %3, i64 16
  %9 = load double, ptr %8, align 8, !tbaa !11
  %10 = tail call i32 (ptr, ...) @printf(ptr noundef nonnull dereferenceable(1) @.str.57, double noundef %5, double noundef %7, double noundef %9)
  %11 = getelementptr inbounds nuw i8, ptr %0, i64 8
  %12 = load ptr, ptr %11, align 8, !tbaa !26
  %13 = tail call ptr @N_VGetArrayPointer(ptr noundef %12) #15
  %14 = tail call i32 (ptr, ...) @printf(ptr noundef nonnull dereferenceable(1) @.str.62)
  %15 = load double, ptr %13, align 8, !tbaa !11
  %16 = getelementptr inbounds nuw i8, ptr %13, i64 8
  %17 = load double, ptr %16, align 8, !tbaa !11
  %18 = getelementptr inbounds nuw i8, ptr %13, i64 16
  %19 = load double, ptr %18, align 8, !tbaa !11
  %20 = tail call i32 (ptr, ...) @printf(ptr noundef nonnull dereferenceable(1) @.str.57, double noundef %15, double noundef %17, double noundef %19)
  %21 = getelementptr inbounds nuw i8, ptr %0, i64 16
  %22 = load ptr, ptr %21, align 8, !tbaa !26
  %23 = tail call ptr @N_VGetArrayPointer(ptr noundef %22) #15
  %24 = tail call i32 (ptr, ...) @printf(ptr noundef nonnull dereferenceable(1) @.str.65)
  %25 = load double, ptr %23, align 8, !tbaa !11
  %26 = getelementptr inbounds nuw i8, ptr %23, i64 8
  %27 = load double, ptr %26, align 8, !tbaa !11
  %28 = getelementptr inbounds nuw i8, ptr %23, i64 16
  %29 = load double, ptr %28, align 8, !tbaa !11
  %30 = tail call i32 (ptr, ...) @printf(ptr noundef nonnull dereferenceable(1) @.str.57, double noundef %25, double noundef %27, double noundef %29)
  ret void
}